; Function Attrs: mustprogress nofree norecurse nosync nounwind willreturn memory(argmem: readwrite, inaccessiblemem: write) uwtable
define void @_ZN9grpc_core4Rbac9CidrRangeC2ENSt7__cxx1112basic_stringIcSt11char_traitsIcESaIcEEEj(ptr noundef nonnull align 8 dereferenceable(36) %0, ptr noundef %1, i32 noundef %2) unnamed_addr #8 align 2 personality ptr @__gxx_personality_v0 {
  %4 = getelementptr inbounds nuw i8, ptr %0, i64 16
  store ptr %4, ptr %0, align 8, !tbaa !3
  %5 = load ptr, ptr %1, align 8, !tbaa !9
  %6 = getelementptr inbounds nuw i8, ptr %1, i64 16
  %7 = icmp eq ptr %5, %6
  br i1 %7, label %8, label %_ZNKSt7__cxx1112basic_stringIcSt11char_traitsIcESaIcEE11_M_is_localEv.exit.i

8:                                                ; preds = %3
  %9 = getelementptr inbounds nuw i8, ptr %1, i64 8
  %10 = load i64, ptr %9, align 8, !tbaa !12
  %11 = icmp ult i64 %10, 16
  tail call void @llvm.assume(i1 %11)
  %12 = add nuw nsw i64 %10, 1
  tail call void @llvm.memcpy.p0.p0.i64(ptr noundef nonnull align 8 dereferenceable(1) %4, ptr noundef nonnull align 8 dereferenceable(1) %6, i64 %12, i1 false)
  br label %_ZNSt7__cxx1112basic_stringIcSt11char_traitsIcESaIcEEC2EOS4_.exit

_ZNKSt7__cxx1112basic_stringIcSt11char_traitsIcESaIcEE11_M_is_localEv.exit.i: ; preds = %3
  store ptr %5, ptr %0, align 8, !tbaa !9
  %13 = load i64, ptr %6, align 8, !tbaa !13
  store i64 %13, ptr %4, align 8, !tbaa !13
  br label %_ZNSt7__cxx1112basic_stringIcSt11char_traitsIcESaIcEEC2EOS4_.exit

_ZNSt7__cxx1112basic_stringIcSt11char_traitsIcESaIcEEC2EOS4_.exit: ; preds = %8, %_ZNKSt7__cxx1112basic_stringIcSt11char_traitsIcESaIcEE11_M_is_localEv.exit.i
  %14 = getelementptr inbounds nuw i8, ptr %1, i64 8
  %15 = load i64, ptr %14, align 8, !tbaa !12
  %16 = getelementptr inbounds nuw i8, ptr %0, i64 8
  store i64 %15, ptr %16, align 8, !tbaa !12
  store ptr %6, ptr %1, align 8, !tbaa !9
  store i64 0, ptr %14, align 8, !tbaa !12
  store i8 0, ptr %6, align 1, !tbaa !13
  %17 = getelementptr inbounds nuw i8, ptr %0, i64 32
  store i32 %2, ptr %17, align 8, !tbaa !91
  ret void
}